target datalayout = "e-m:e-p270:32:32-p271:32:32-p272:64:64-i64:64-i128:128-f80:128-n8:16:32:64-S128"
target triple = "x86_64-pc-linux-gnu"

%struct.lua_State = type { %struct.GCRef, i8, i8, i8, i8, %struct.MRef, %struct.GCRef, ptr, ptr, %struct.MRef, %struct.MRef, %struct.GCRef, %struct.GCRef, ptr, i32 }
%struct.MRef = type { i64 }
%struct.GCRef = type { i64 }
%union.TValue = type { i64 }

@.str.10 = private unnamed_addr constant [8 x i8] c"running\00", align 1
@.str.11 = private unnamed_addr constant [10 x i8] c"suspended\00", align 1
@.str.12 = private unnamed_addr constant [5 x i8] c"dead\00", align 1
@.str.13 = private unnamed_addr constant [7 x i8] c"normal\00", align 1

; Function Attrs: nounwind uwtable
define internal i32 @lj_cf_coroutine_status(ptr noundef %0) #3 {
  %2 = alloca ptr, align 8
  %3 = alloca ptr, align 8
  %4 = alloca ptr, align 8
  store ptr %0, ptr %2, align 8, !tbaa !4
  call void @llvm.lifetime.start.p0(i64 8, ptr %3) #11
  call void @llvm.lifetime.start.p0(i64 8, ptr %4) #11
  %5 = load ptr, ptr %2, align 8, !tbaa !4
  %6 = getelementptr inbounds nuw %struct.lua_State, ptr %5, i32 0, i32 8
  %7 = load ptr, ptr %6, align 8, !tbaa !9
  %8 = load ptr, ptr %2, align 8, !tbaa !4
  %9 = getelementptr inbounds nuw %struct.lua_State, ptr %8, i32 0, i32 7
  %10 = load ptr, ptr %9, align 8, !tbaa !32
  %11 = icmp ugt ptr %7, %10
  br i1 %11, label %12, label %20

12:                                               ; preds = %1
  %13 = load ptr, ptr %2, align 8, !tbaa !4
  %14 = getelementptr inbounds nuw %struct.lua_State, ptr %13, i32 0, i32 7
  %15 = load ptr, ptr %14, align 8, !tbaa !32
  %16 = load i64, ptr %15, align 8, !tbaa !16
  %17 = ashr i64 %16, 47
  %18 = trunc i64 %17 to i32
  %19 = icmp eq i32 %18, -7
  br i1 %19, label %22, label %20

20:                                               ; preds = %12, %1
  %21 = load ptr, ptr %2, align 8, !tbaa !4
  call void @lj_err_arg(ptr noundef %21, i32 noundef 1, i32 noundef 566) #10
  unreachable

22:                                               ; preds = %12
  %23 = load ptr, ptr %2, align 8, !tbaa !4
  %24 = getelementptr inbounds nuw %struct.lua_State, ptr %23, i32 0, i32 7
  %25 = load ptr, ptr %24, align 8, !tbaa !32
  %26 = getelementptr inbounds nuw %struct.GCRef, ptr %25, i32 0, i32 0
  %27 = load i64, ptr %26, align 8, !tbaa !16
  %28 = and i64 %27, 140737488355327
  %29 = inttoptr i64 %28 to ptr
  store ptr %29, ptr %4, align 8, !tbaa !4
  %30 = load ptr, ptr %4, align 8, !tbaa !4
  %31 = load ptr, ptr %2, align 8, !tbaa !4
  %32 = icmp eq ptr %30, %31
  br i1 %32, label %33, label %34

33:                                               ; preds = %22
  store ptr @.str.10, ptr %3, align 8, !tbaa !25
  br label %75

34:                                               ; preds = %22
  %35 = load ptr, ptr %4, align 8, !tbaa !4
  %36 = getelementptr inbounds nuw %struct.lua_State, ptr %35, i32 0, i32 4
  %37 = load i8, ptr %36, align 1, !tbaa !86
  %38 = zext i8 %37 to i32
  %39 = icmp eq i32 %38, 1
  br i1 %39, label %40, label %41

40:                                               ; preds = %34
  store ptr @.str.11, ptr %3, align 8, !tbaa !25
  br label %74

41:                                               ; preds = %34
  %42 = load ptr, ptr %4, align 8, !tbaa !4
  %43 = getelementptr inbounds nuw %struct.lua_State, ptr %42, i32 0, i32 4
  %44 = load i8, ptr %43, align 1, !tbaa !86
  %45 = zext i8 %44 to i32
  %46 = icmp ne i32 %45, 0
  br i1 %46, label %47, label %48

47:                                               ; preds = %41
  store ptr @.str.12, ptr %3, align 8, !tbaa !25
  br label %73

48:                                               ; preds = %41
  %49 = load ptr, ptr %4, align 8, !tbaa !4
  %50 = getelementptr inbounds nuw %struct.lua_State, ptr %49, i32 0, i32 7
  %51 = load ptr, ptr %50, align 8, !tbaa !32
  %52 = load ptr, ptr %4, align 8, !tbaa !4
  %53 = getelementptr inbounds nuw %struct.lua_State, ptr %52, i32 0, i32 10
  %54 = getelementptr inbounds nuw %struct.MRef, ptr %53, i32 0, i32 0
  %55 = load i64, ptr %54, align 8, !tbaa !87
  %56 = inttoptr i64 %55 to ptr
  %57 = getelementptr inbounds %union.TValue, ptr %56, i64 1
  %58 = getelementptr inbounds %union.TValue, ptr %57, i64 1
  %59 = icmp ugt ptr %51, %58
  br i1 %59, label %60, label %61

60:                                               ; preds = %48
  store ptr @.str.13, ptr %3, align 8, !tbaa !25
  br label %72

61:                                               ; preds = %48
  %62 = load ptr, ptr %4, align 8, !tbaa !4
  %63 = getelementptr inbounds nuw %struct.lua_State, ptr %62, i32 0, i32 8
  %64 = load ptr, ptr %63, align 8, !tbaa !9
  %65 = load ptr, ptr %4, align 8, !tbaa !4
  %66 = getelementptr inbounds nuw %struct.lua_State, ptr %65, i32 0, i32 7
  %67 = load ptr, ptr %66, align 8, !tbaa !32
  %68 = icmp eq ptr %64, %67
  br i1 %68, label %69, label %70

69:                                               ; preds = %61
  store ptr @.str.12, ptr %3, align 8, !tbaa !25
  br label %71

70:                                               ; preds = %61
  store ptr @.str.11, ptr %3, align 8, !tbaa !25
  br label %71

71:                                               ; preds = %70, %69
  br label %72

72:                                               ; preds = %71, %60
  br label %73

73:                                               ; preds = %72, %47
  br label %74

74:                                               ; preds = %73, %40
  br label %75

75:                                               ; preds = %74, %33
  %76 = load ptr, ptr %2, align 8, !tbaa !4
  %77 = load ptr, ptr %3, align 8, !tbaa !25
  call void @lua_pushstring(ptr noundef %76, ptr noundef %77)
  call void @llvm.lifetime.end.p0(i64 8, ptr %4) #11
  call void @llvm.lifetime.end.p0(i64 8, ptr %3) #11
  ret i32 1
}