; Function Attrs: nounwind uwtable
define internal noundef i32 @lj_cf_coroutine_status(ptr noundef %0) #2 {
  %2 = getelementptr inbounds nuw i8, ptr %0, i64 40
  %3 = load ptr, ptr %2, align 8, !tbaa !4
  %4 = getelementptr inbounds nuw i8, ptr %0, i64 32
  %5 = load ptr, ptr %4, align 8, !tbaa !19
  %6 = icmp ugt ptr %3, %5
  br i1 %6, label %7, label %10

7:                                                ; preds = %1
  %8 = load i64, ptr %5, align 8, !tbaa !14
  %.mask = and i64 %8, -140737488355328
  %9 = icmp eq i64 %.mask, -985162418487296
  br i1 %9, label %11, label %10

10:                                               ; preds = %7, %1
  tail call void @lj_err_arg(ptr noundef nonnull %0, i32 noundef 1, i32 noundef 566) #10
  unreachable

11:                                               ; preds = %7
  %12 = and i64 %8, 140737488355327
  %13 = inttoptr i64 %12 to ptr
  %14 = icmp eq ptr %0, %13
  br i1 %14, label %31, label %15

15:                                               ; preds = %11
  %16 = getelementptr inbounds nuw i8, ptr %13, i64 11
  %17 = load i8, ptr %16, align 1, !tbaa !67
  switch i8 %17, label %18 [
    i8 1, label %31
    i8 0, label %19
  ]

18:                                               ; preds = %15
  br label %31

19:                                               ; preds = %15
  %20 = getelementptr inbounds nuw i8, ptr %13, i64 32
  %21 = load ptr, ptr %20, align 8, !tbaa !19
  %22 = getelementptr inbounds nuw i8, ptr %13, i64 56
  %23 = load i64, ptr %22, align 8, !tbaa !68
  %24 = inttoptr i64 %23 to ptr
  %25 = getelementptr inbounds nuw i8, ptr %24, i64 16
  %26 = icmp ugt ptr %21, %25
  br i1 %26, label %31, label %27

27:                                               ; preds = %19
  %28 = getelementptr inbounds nuw i8, ptr %13, i64 40
  %29 = load ptr, ptr %28, align 8, !tbaa !4
  %30 = icmp eq ptr %29, %21
  %.str.12..str.11 = select i1 %30, ptr @.str.12, ptr @.str.11
  br label %31

31:                                               ; preds = %27, %19, %15, %11, %18
  %.0 = phi ptr [ @.str.12, %18 ], [ @.str.10, %11 ], [ @.str.11, %15 ], [ @.str.13, %19 ], [ %.str.12..str.11, %27 ]
  tail call void @lua_pushstring(ptr noundef nonnull %0, ptr noundef nonnull %.0) #11
  ret i32 1
}